(dp1
S'_Z16constrain_kernelifPfi'
p2
I5
sS'_Z15variance_kernelPfS_iiiS_'
p3
I26
sS'_Z21weighted_delta_kerneliPfS_S_S_S_S_S_'
p4
I16
sS'_Z17im2col_gpu_kerneliPKfiiiiiiiPf'
p5
I31
sS'_Z28forward_maxpool_layer_kerneliiiiiiiPfS_Pi'
p6
I21
sS'_Z25forward_crop_layer_kernelPfS_iiiiiiiifS_'
p7
I30
sS'_Z21variance_delta_kernelPfS_S_S_iiiS_'
p8
I23
sS'_Z28forward_softmax_layer_kerneliiPffS_'
p9
I26
sS'_Z29backward_avgpool_layer_kerneliiiiPfS_'
p10
I22
sS'_Z21backward_scale_kernelPfS_iiiS_'
p11
I19
sS'_Z11scal_kernelifPfi'
p12
I5
sS'_Z22fast_mean_delta_kernelPfS_iiiS_'
p13
I18
sS'_Z11mask_kerneliPffS_'
p14
I6
sS'_Z11axpy_kernelifPfiiS_ii'
p15
I8
sS'_Z22normalize_delta_kerneliPfS_S_S_S_iiiS_'
p16
I23
sS'_Z15binarize_kernelPfiS_'
p17
I7
sS'_Z15add_bias_kernelPfS_ii'
p18
I6
sS'_Z16normalize_kerneliPfS_S_iii'
p19
I18
sS'_Z11supp_kernelifPfi'
p20
I6
sS'_Z17mean_delta_kernelPfS_iiiS_'
p21
I18
sS'_Z19levels_image_kernelPfS_iiiifffff'
p22
I31
sS'_Z23binarize_weights_kernelPfiiS_'
p23
I20
sS'_Z9l2_kerneliPfS_S_S_'
p24
I12
sS'_Z10mul_kerneliPfiS_i'
p25
I8
sS'_Z20mult_add_into_kerneliPfS_S_'
p26
I8
sS'_Z12const_kernelifPfi'
p27
I5
sS'_Z12reorg_kerneliPfiiiiiiS_'
p28
I27
sS'_Z19weighted_sum_kerneliPfS_S_S_'
p29
I10
sS'_Z16fast_mean_kernelPfiiiS_'
p30
I18
sS'_Z29backward_maxpool_layer_kerneliiiiiiiPfS_Pi'
p31
I30
sS'_Z17col2im_gpu_kerneliPKfiiiiiiiPf'
p32
I35
sS'_Z20fast_variance_kernelPfS_iiiS_'
p33
I31
sS'_Z21activate_array_kernelPfi10ACTIVATION'
p34
I18
sS'_Z16smooth_l1_kerneliPfS_S_S_'
p35
I12
sS'_Z21binarize_input_kernelPfiiS_'
p36
I18
sS'_Z15shortcut_kerneliiiiiiiiiiPfiiiS_'
p37
I19
sS'_Z20backward_bias_kernelPfS_iii'
p38
I14
sS'_Z28forward_avgpool_layer_kerneliiiiPfS_'
p39
I18
sS'_Z26fast_variance_delta_kernelPfS_S_S_iiiS_'
p40
I34
sS'_Z21gradient_array_kernelPfi10ACTIVATIONS_'
p41
I6
sS'_Z17accumulate_kernelPfiiS_'
p42
I14
sS'_Z17scale_bias_kernelPfS_ii'
p43
I6
sS'_Z28yoloswag420blazeit360noscopePfiS_ff'
p44
I6
sS'_Z11copy_kerneliPfiiS_ii'
p45
I8
sS'_Z10pow_kernelifPfiS_i'
p46
I19
sS'_Z11fill_kernelifPfi'
p47
I5
sS'_Z11mean_kernelPfiiiS_'
p48
I18
s.