(dp1
S'_Z16sdc_check_kernelPfS_i'
p2
I6
sS'_Z33extract_descrs_by_rows_kernel_extILi256EEviiiPKfN2cv3gpu7PtrStepIfEE'
p3
I21
sS'_Z25resize_for_hog_kernel_extffN2cv3gpu9PtrStepSzIhEEi'
p4
I7
sS'_Z33compute_gradients_8UC1_kernel_extILi256ELi0EEviiN2cv3gpu7PtrStepIhEEfNS2_IfEES3_'
p5
I25
sS'_Z38normalize_hists_kernel_many_blocks_extILi256ELi1EEviiiiPfffRi'
p6
I30
sS'_Z38normalize_hists_kernel_many_blocks_extILi512ELi1EEviiiiPfffRi'
p7
I30
sS'_Z33compute_gradients_8UC1_kernel_extILi256ELi1EEviiN2cv3gpu7PtrStepIhEEfNS2_IfEES3_'
p8
I25
sS'_Z37classify_hists_kernel_many_blocks_extILi256ELi1EEviiiiiiiiPKfS1_ffffPhRi'
p9
I25
sS'_Z47compute_confidence_hists_kernel_many_blocks_extILi256ELi1EEviiiiPKfS1_ffPf'
p10
I19
sS'_Z21sdc_check_kernel_charPhS_i'
p11
I10
sS'_Z38normalize_hists_kernel_many_blocks_extILi64ELi1EEviiiiPfffRi'
p12
I30
sS'_Z38normalize_hists_kernel_many_blocks_extILi32ELi1EEviiiiPfffRi'
p13
I24
sS'_Z33compute_gradients_8UC4_kernel_extILi256ELi0EEviiN2cv3gpu7PtrStepIhEEfNS2_IfEES3_'
p14
I25
sS'_Z25resize_for_hog_kernel_extffN2cv3gpu9PtrStepSzI6uchar4EEi'
p15
I11
sS'_Z33extract_descrs_by_cols_kernel_extILi256EEviiiPKfN2cv3gpu7PtrStepIfEE'
p16
I26
sS'_Z36compute_hists_kernel_many_blocks_extILi1EEviN2cv3gpu7PtrStepIfEENS2_IhEEfPf'
p17
I32
sS'_Z33compute_gradients_8UC4_kernel_extILi256ELi1EEviiN2cv3gpu7PtrStepIhEEfNS2_IfEES3_'
p18
I31
s.