(dp1
S'_Z21sdc_check_kernel_charPhS_ii'
p2
I8
sS'_Z16sdc_check_kernelPfS_i'
p3
I6
sS'_Z33extract_descrs_by_rows_kernel_extILi256EEviiiPKfN2cv3gpu7PtrStepIfEE'
p4
I21
sS'_Z25resize_for_hog_kernel_extffN2cv3gpu9PtrStepSzIhEEi'
p5
I7
sS'_Z33compute_gradients_8UC1_kernel_extILi256ELi0EEviiN2cv3gpu7PtrStepIhEEfNS2_IfEES3_'
p6
I25
sS'_Z38normalize_hists_kernel_many_blocks_extILi256ELi1EEviiiiPfffRi'
p7
I28
sS'_Z38normalize_hists_kernel_many_blocks_extILi512ELi1EEviiiiPfffRi'
p8
I28
sS'_Z33compute_gradients_8UC1_kernel_extILi256ELi1EEviiN2cv3gpu7PtrStepIhEEfNS2_IfEES3_'
p9
I25
sS'_Z47compute_confidence_hists_kernel_many_blocks_extILi256ELi1EEviiiiPKfS1_ffPf'
p10
I19
sS'_Z16reset_kernel_sdcv'
p11
I4
sS'_Z38normalize_hists_kernel_many_blocks_extILi64ELi1EEviiiiPfffRi'
p12
I28
sS'_Z37classify_hists_kernel_many_blocks_extILi256ELi1EEviiiiiiiiPKfS1_ffffPh'
p13
I25
sS'_Z38normalize_hists_kernel_many_blocks_extILi32ELi1EEviiiiPfffRi'
p14
I22
sS'_Z33compute_gradients_8UC4_kernel_extILi256ELi0EEviiN2cv3gpu7PtrStepIhEEfNS2_IfEES3_'
p15
I25
sS'_Z25resize_for_hog_kernel_extffN2cv3gpu9PtrStepSzI6uchar4EEi'
p16
I11
sS'_Z33extract_descrs_by_cols_kernel_extILi256EEviiiPKfN2cv3gpu7PtrStepIfEE'
p17
I26
sS'_Z36compute_hists_kernel_many_blocks_extILi1EEviN2cv3gpu7PtrStepIfEENS2_IhEEfPf'
p18
I32
sS'_Z33compute_gradients_8UC4_kernel_extILi256ELi1EEviiN2cv3gpu7PtrStepIhEEfNS2_IfEES3_'
p19
I31
s.