(dp1
S'_ZN6thrust6system4cuda6detail5bulk_6detail15launch_by_valueILj0ENS4_9cuda_taskINS3_14parallel_groupINS3_16concurrent_groupINS3_5agentILm1EEELm0EEELm0EEENS4_7closureINS2_17for_each_n_detail15for_each_kernelENS_5tupleINS4_6cursorILj0EEENS_12zip_iteratorINSG_INS_10device_ptrIdEEPdNS_9null_typeESN_SN_SN_SN_SN_SN_SN_EEEENS_6detail16wrapped_functionINSQ_23unary_transform_functorINS_8identityIdEEEEvEElSN_SN_SN_SN_SN_SN_EEEEEEEEvT0_'
p2
I14
sS'_ZN6thrust6system4cuda6detail5bulk_6detail15launch_by_valueILj0ENS4_9cuda_taskINS3_14parallel_groupINS3_16concurrent_groupINS3_5agentILm1EEELm0EEELm0EEENS4_7closureINS2_17for_each_n_detail15for_each_kernelENS_5tupleINS4_6cursorILj0EEENS_12zip_iteratorINSG_INS_6detail15normal_iteratorINS_10device_ptrIiEEEENS_7pointerIiNS2_3tagENS_11use_defaultESR_EENS_9null_typeEST_ST_ST_ST_ST_ST_ST_EEEENSK_16wrapped_functionINSK_23unary_transform_functorINS_8identityIiEEEEvEElST_ST_ST_ST_ST_ST_EEEEEEEEvT0_'
p3
I14
sS'_ZN6thrust6system4cuda6detail5bulk_6detail15launch_by_valueILj0ENS4_9cuda_taskINS3_14parallel_groupINS3_16concurrent_groupINS3_5agentILm1EEELm0EEELm0EEENS4_7closureINS2_17for_each_n_detail15for_each_kernelENS_5tupleINS4_6cursorILj0EEENS_10device_ptrIdEENS_6detail16wrapped_functionINSL_23device_generate_functorINSL_12fill_functorIdEEEEvEEjNS_9null_typeESS_SS_SS_SS_SS_EEEEEEEEvT0_'
p4
I10
sS'_ZN6thrust6system4cuda6detail5bulk_6detail15launch_by_valueILj0ENS4_9cuda_taskINS3_14parallel_groupINS3_16concurrent_groupINS3_5agentILm1EEELm0EEELm0EEENS4_7closureINS2_17for_each_n_detail15for_each_kernelENS_5tupleINS4_6cursorILj0EEENS_12zip_iteratorINSG_INS_6detail15normal_iteratorINS_10device_ptrIdEEEENS_7pointerIdNS2_3tagENS_11use_defaultESR_EENS_9null_typeEST_ST_ST_ST_ST_ST_ST_EEEENSK_16wrapped_functionINSK_23unary_transform_functorINS_8identityIdEEEEvEElST_ST_ST_ST_ST_ST_EEEEEEEEvT0_'
p5
I14
sS'_ZN6thrust6system4cuda6detail5bulk_6detail15launch_by_valueILj0ENS4_9cuda_taskINS3_14parallel_groupINS3_16concurrent_groupINS3_5agentILm1EEELm0EEELm0EEENS4_7closureINS2_17for_each_n_detail15for_each_kernelENS_5tupleINS4_6cursorILj0EEENS_10device_ptrIdEENS_6detail16wrapped_functionINSL_23device_generate_functorINSL_12fill_functorIdEEEEvEEmNS_9null_typeESS_SS_SS_SS_SS_EEEEEEEEvT0_'
p6
I10
sS'_ZN6thrust6system4cuda6detail5bulk_6detail15launch_by_valueILj0ENS4_9cuda_taskINS3_14parallel_groupINS3_16concurrent_groupINS3_5agentILm1EEELm0EEELm0EEENS4_7closureINS2_17for_each_n_detail15for_each_kernelENS_5tupleINS4_6cursorILj0EEENS_6detail15normal_iteratorINS_10device_ptrIdEEEENSJ_16wrapped_functionINSJ_23device_generate_functorINSJ_12fill_functorIdEEEEvEEjNS_9null_typeESU_SU_SU_SU_SU_EEEEEEEEvT0_'
p7
I10
sS'_Z45ApplyMaterialPropertiesAndUpdateVolume_kernelidddPdS_S_S_dddddPiS_S_S_S_dS_dS0_iPKiS2_i'
p8
I87
sS'_Z29AddNodeForcesFromElems_kerneliiPKiS0_S0_PKdS2_S2_PdS3_S3_i'
p9
I38
sS'_ZN6thrust6system4cuda6detail5bulk_6detail15launch_by_valueILj0ENS4_9cuda_taskINS3_14parallel_groupINS3_16concurrent_groupINS3_5agentILm1EEELm0EEELm0EEENS4_7closureINS2_17for_each_n_detail15for_each_kernelENS_5tupleINS4_6cursorILj0EEENS_12zip_iteratorINSG_INS_6detail15normal_iteratorINS_10device_ptrIiEEEESN_NS_9null_typeESP_SP_SP_SP_SP_SP_SP_EEEENSK_16wrapped_functionINSK_23unary_transform_functorINS_8identityIiEEEEvEEjSP_SP_SP_SP_SP_SP_EEEEEEEEvT0_'
p10
I10
sS'_ZN6thrust6system4cuda6detail5bulk_6detail15launch_by_valueILj0ENS4_9cuda_taskINS3_14parallel_groupINS3_16concurrent_groupINS3_5agentILm1EEELm0EEELm0EEENS4_7closureINS2_17for_each_n_detail15for_each_kernelENS_5tupleINS4_6cursorILj0EEENS_10device_ptrIiEENS_6detail16wrapped_functionINSL_23device_generate_functorINSL_12fill_functorIiEEEEvEEjNS_9null_typeESS_SS_SS_SS_SS_EEEEEEEEvT0_'
p11
I8
sS'_ZN6thrust6system4cuda6detail5bulk_6detail15launch_by_valueILj0ENS4_9cuda_taskINS3_14parallel_groupINS3_16concurrent_groupINS3_5agentILm1EEELm0EEELm0EEENS4_7closureINS2_17for_each_n_detail15for_each_kernelENS_5tupleINS4_6cursorILj0EEENS_12zip_iteratorINSG_INS_10device_ptrIdEEPdNS_9null_typeESN_SN_SN_SN_SN_SN_SN_EEEENS_6detail16wrapped_functionINSQ_23unary_transform_functorINS_8identityIdEEEEvEEjSN_SN_SN_SN_SN_SN_EEEEEEEEvT0_'
p12
I12
sS'_Z31CalcAccelerationForNodes_kerneliPdS_S_S_S_S_S_'
p13
I20
sS'_ZN6thrust6system4cuda6detail5bulk_6detail15launch_by_valueILj0ENS4_9cuda_taskINS3_14parallel_groupINS3_16concurrent_groupINS3_5agentILm1EEELm0EEELm0EEENS4_7closureINS2_17for_each_n_detail15for_each_kernelENS_5tupleINS4_6cursorILj0EEENS_10device_ptrIiEENS_6detail16wrapped_functionINSL_23device_generate_functorINSL_12fill_functorIiEEEEvEEmNS_9null_typeESS_SS_SS_SS_SS_EEEEEEEEvT0_'
p14
I8
sS'_Z30CalcVolumeForceForElems_kernelILb0EEvPKdS1_S1_S1_diiPKiS1_S1_S1_S1_S1_S1_S1_S1_PdS4_S4_Pii'
p15
I180
sS'_ZN6thrust6system4cuda6detail5bulk_6detail15launch_by_valueILj0ENS4_9cuda_taskINS3_14parallel_groupINS3_16concurrent_groupINS3_5agentILm1EEELm0EEELm0EEENS4_7closureINS2_17for_each_n_detail15for_each_kernelENS_5tupleINS4_6cursorILj0EEENS_12zip_iteratorINSG_INS_6detail15normal_iteratorINS_10device_ptrIdEEEENS_7pointerIdNS2_3tagENS_11use_defaultESR_EENS_9null_typeEST_ST_ST_ST_ST_ST_ST_EEEENSK_16wrapped_functionINSK_23unary_transform_functorINS_8identityIdEEEEvEEjST_ST_ST_ST_ST_ST_EEEEEEEEvT0_'
p16
I12
sS'_ZN6thrust6system4cuda6detail5bulk_6detail15launch_by_valueILj0ENS4_9cuda_taskINS3_14parallel_groupINS3_16concurrent_groupINS3_5agentILm1EEELm0EEELm0EEENS4_7closureINS2_17for_each_n_detail15for_each_kernelENS_5tupleINS4_6cursorILj0EEENS_12zip_iteratorINSG_IPKdNS_10device_ptrIdEENS_9null_typeESO_SO_SO_SO_SO_SO_SO_EEEENS_6detail16wrapped_functionINSR_23unary_transform_functorINS_8identityIdEEEEvEElSO_SO_SO_SO_SO_SO_EEEEEEEEvT0_'
p17
I14
sS'_ZN6thrust6system4cuda6detail5bulk_6detail15launch_by_valueILj0ENS4_9cuda_taskINS3_14parallel_groupINS3_16concurrent_groupINS3_5agentILm1EEELm0EEELm0EEENS4_7closureINS2_17for_each_n_detail15for_each_kernelENS_5tupleINS4_6cursorILj0EEENS_12zip_iteratorINSG_INS_6detail15normal_iteratorINS_10device_ptrIiEEEENS_7pointerIiNS2_3tagENS_11use_defaultESR_EENS_9null_typeEST_ST_ST_ST_ST_ST_ST_EEEENSK_16wrapped_functionINSK_23unary_transform_functorINS_8identityIiEEEEvEEjST_ST_ST_ST_ST_ST_EEEEEEEEvT0_'
p18
I10
sS'_Z38CalcPositionAndVelocityForNodes_kerneliddPdS_S_S_S_S_PKdS1_S1_'
p19
I26
sS'_ZN6thrust6system4cuda6detail5bulk_6detail15launch_by_valueILj0ENS4_9cuda_taskINS3_14parallel_groupINS3_16concurrent_groupINS3_5agentILm1EEELm0EEELm0EEENS4_7closureINS2_17for_each_n_detail15for_each_kernelENS_5tupleINS4_6cursorILj0EEENS_12zip_iteratorINSG_IPKdNS_10device_ptrIdEENS_9null_typeESO_SO_SO_SO_SO_SO_SO_EEEENS_6detail16wrapped_functionINSR_23unary_transform_functorINS_8identityIdEEEEvEEjSO_SO_SO_SO_SO_SO_EEEEEEEEvT0_'
p20
I12
sS'_ZN6thrust6system4cuda6detail5bulk_6detail15launch_by_valueILj0ENS4_9cuda_taskINS3_14parallel_groupINS3_16concurrent_groupINS3_5agentILm1EEELm0EEELm0EEENS4_7closureINS2_17for_each_n_detail15for_each_kernelENS_5tupleINS4_6cursorILj0EEENS_6detail15normal_iteratorINS_10device_ptrIdEEEENSJ_16wrapped_functionINSJ_23device_generate_functorINSJ_12fill_functorIdEEEEvEElNS_9null_typeESU_SU_SU_SU_SU_EEEEEEEEvT0_'
p21
I10
sS'_ZN6thrust6system4cuda6detail5bulk_6detail15launch_by_valueILj0ENS4_9cuda_taskINS3_14parallel_groupINS3_16concurrent_groupINS3_5agentILm1EEELm0EEELm0EEENS4_7closureINS2_17for_each_n_detail15for_each_kernelENS_5tupleINS4_6cursorILj0EEENS_12zip_iteratorINSG_INS_6detail15normal_iteratorINS_7pointerIdNS2_3tagENS_11use_defaultESO_EEEENSL_INS_10device_ptrIdEEEENS_9null_typeESU_SU_SU_SU_SU_SU_SU_EEEENSK_16wrapped_functionINSK_23unary_transform_functorINS_8identityIdEEEEvEEjSU_SU_SU_SU_SU_SU_EEEEEEEEvT0_'
p22
I12
sS'_Z42CalcKinematicsAndMonotonicQGradient_kerneliidPKiPKdS2_S2_S2_S2_S2_S2_S2_PdS3_S3_S3_S3_S3_S3_S3_S3_S3_S3_S3_S3_Pii'
p23
I128
sS'_Z30CalcVolumeForceForElems_kernelILb1EEvPKdS1_S1_S1_diiPKiS1_S1_S1_S1_S1_S1_S1_S1_PdS4_S4_Pii'
p24
I254
sS'_ZN6thrust6system4cuda6detail5bulk_6detail15launch_by_valueILj0ENS4_9cuda_taskINS3_14parallel_groupINS3_16concurrent_groupINS3_5agentILm1EEELm0EEELm0EEENS4_7closureINS2_17for_each_n_detail15for_each_kernelENS_5tupleINS4_6cursorILj0EEENS_12zip_iteratorINSG_INS_6detail15normal_iteratorINS_7pointerIdNS2_3tagENS_11use_defaultESO_EEEENSL_INS_10device_ptrIdEEEENS_9null_typeESU_SU_SU_SU_SU_SU_SU_EEEENSK_16wrapped_functionINSK_23unary_transform_functorINS_8identityIdEEEEvEElSU_SU_SU_SU_SU_SU_EEEEEEEEvT0_'
p25
I14
sS'_ZN6thrust6system4cuda6detail5bulk_6detail15launch_by_valueILj0ENS4_9cuda_taskINS3_14parallel_groupINS3_16concurrent_groupINS3_5agentILm1EEELm0EEELm0EEENS4_7closureINS2_17for_each_n_detail15for_each_kernelENS_5tupleINS4_6cursorILj0EEENS_12zip_iteratorINSG_INS_6detail15normal_iteratorINS_7pointerIiNS2_3tagENS_11use_defaultESO_EEEENSL_INS_10device_ptrIiEEEENS_9null_typeESU_SU_SU_SU_SU_SU_SU_EEEENSK_16wrapped_functionINSK_23unary_transform_functorINS_8identityIiEEEEvEElSU_SU_SU_SU_SU_SU_EEEEEEEEvT0_'
p26
I14
sS'_ZN6thrust6system4cuda6detail5bulk_6detail15launch_by_valueILj0ENS4_9cuda_taskINS3_14parallel_groupINS3_16concurrent_groupINS3_5agentILm1EEELm0EEELm0EEENS4_7closureINS2_17for_each_n_detail15for_each_kernelENS_5tupleINS4_6cursorILj0EEENS_12zip_iteratorINSG_INS_6detail15normal_iteratorINS_10device_ptrIdEEEESN_NS_9null_typeESP_SP_SP_SP_SP_SP_SP_EEEENSK_16wrapped_functionINSK_23unary_transform_functorINS_8identityIdEEEEvEElSP_SP_SP_SP_SP_SP_EEEEEEEEvT0_'
p27
I14
sS'_ZN6thrust6system4cuda6detail5bulk_6detail15launch_by_valueILj0ENS4_9cuda_taskINS3_14parallel_groupINS3_16concurrent_groupINS3_5agentILm1EEELm0EEELm0EEENS4_7closureINS2_17for_each_n_detail15for_each_kernelENS_5tupleINS4_6cursorILj0EEENS_12zip_iteratorINSG_INS_6detail15normal_iteratorINS_10device_ptrIdEEEESN_NS_9null_typeESP_SP_SP_SP_SP_SP_SP_EEEENSK_16wrapped_functionINSK_23unary_transform_functorINS_8identityIdEEEEvEEjSP_SP_SP_SP_SP_SP_EEEEEEEEvT0_'
p28
I12
sS'_ZN6thrust6system4cuda6detail5bulk_6detail15launch_by_valueILj0ENS4_9cuda_taskINS3_14parallel_groupINS3_16concurrent_groupINS3_5agentILm1EEELm0EEELm0EEENS4_7closureINS2_17for_each_n_detail15for_each_kernelENS_5tupleINS4_6cursorILj0EEENS_12zip_iteratorINSG_INS_6detail15normal_iteratorINS_7pointerIiNS2_3tagENS_11use_defaultESO_EEEENSL_INS_10device_ptrIiEEEENS_9null_typeESU_SU_SU_SU_SU_SU_SU_EEEENSK_16wrapped_functionINSK_23unary_transform_functorINS_8identityIiEEEEvEEjSU_SU_SU_SU_SU_SU_EEEEEEEEvT0_'
p29
I10
sS'_ZN6thrust6system4cuda6detail5bulk_6detail15launch_by_valueILj0ENS4_9cuda_taskINS3_14parallel_groupINS3_16concurrent_groupINS3_5agentILm1EEELm0EEELm0EEENS4_7closureINS2_17for_each_n_detail15for_each_kernelENS_5tupleINS4_6cursorILj0EEENS_12zip_iteratorINSG_INS_6detail15normal_iteratorINS_10device_ptrIiEEEESN_NS_9null_typeESP_SP_SP_SP_SP_SP_SP_EEEENSK_16wrapped_functionINSK_23unary_transform_functorINS_8identityIiEEEEvEElSP_SP_SP_SP_SP_SP_EEEEEEEEvT0_'
p30
I14
sS'_Z34CalcTimeConstraintsForElems_kernelILi128EEviddPiPdS1_S1_S1_S1_'
p31
I32
sS'_Z35CalcMonotonicQRegionForElems_kerneldddddiPiS_S_S_S_S_S_S_PdS0_S0_S0_S0_S0_S0_S0_S0_S0_S0_S0_S0_dS_'
p32
I32
sS'_Z50ApplyAccelerationBoundaryConditionsForNodes_kerneliPdPi'
p33
I6
sS'_Z17CalcMinDtOneBlockILi1024EEvPdS0_S0_S0_i'
p34
I12
s.