(dp1
S'_Z23bitonicSortSharedKernelPjS_S_S_jj'
p2
I19
sS'_Z21mergeSortSharedKernelILj0EEvPjS0_S0_S0_j'
p3
I20
sS'_Z37bitonicMergeElementaryIntervalsKernelILj1EEvPjS0_S0_S0_S0_S0_jj'
p4
I20
sS'_Z21mergeSortSharedKernelILj1EEvPjS0_S0_S0_j'
p5
I20
sS'_Z30mergeElementaryIntervalsKernelILj0EEvPjS0_S0_S0_S0_S0_jj'
p6
I16
sS'_Z30mergeElementaryIntervalsKernelILj1EEvPjS0_S0_S0_S0_S0_jj'
p7
I16
sS'_Z25generateSampleRanksKernelILj0EEvPjS0_S0_jjj'
p8
I19
sS'_Z26mergeRanksAndIndicesKernelPjS_jjj'
p9
I16
sS'_Z25generateSampleRanksKernelILj1EEvPjS0_S0_jjj'
p10
I19
sS'_Z37bitonicMergeElementaryIntervalsKernelILj0EEvPjS0_S0_S0_S0_S0_jj'
p11
I20
s.