(dp1
S'_Z33extract_descrs_by_rows_kernel_extILi256EEviiiPKfN2cv3gpu7PtrStepIfEE'
p2
I21
sS'_Z33compute_gradients_8UC1_kernel_extILi256ELi0EEviiN2cv3gpu7PtrStepIhEEfNS2_IfEES3_'
p3
I25
sS'_Z38normalize_hists_kernel_many_blocks_extILi256ELi1EEviiiiPfffRi'
p4
I30
sS'_Z38normalize_hists_kernel_many_blocks_extILi32ELi1EEviiiiPfffRi'
p5
I24
sS'_Z33compute_gradients_8UC1_kernel_extILi256ELi1EEviiN2cv3gpu7PtrStepIhEEfNS2_IfEES3_'
p6
I25
sS'_Z37classify_hists_kernel_many_blocks_extILi256ELi1EEviiiiiiiiPKfS1_ffffPhRi'
p7
I25
sS'_Z47compute_confidence_hists_kernel_many_blocks_extILi256ELi1EEviiiiPKfS1_ffPf'
p8
I19
sS'_Z25resize_for_hog_kernel_extffN2cv3gpu9PtrStepSzIhEEi'
p9
I7
sS'_Z38normalize_hists_kernel_many_blocks_extILi64ELi1EEviiiiPfffRi'
p10
I30
sS'_Z38normalize_hists_kernel_many_blocks_extILi512ELi1EEviiiiPfffRi'
p11
I30
sS'_Z33compute_gradients_8UC4_kernel_extILi256ELi0EEviiN2cv3gpu7PtrStepIhEEfNS2_IfEES3_'
p12
I25
sS'_Z25resize_for_hog_kernel_extffN2cv3gpu9PtrStepSzI6uchar4EEi'
p13
I11
sS'_Z33extract_descrs_by_cols_kernel_extILi256EEviiiPKfN2cv3gpu7PtrStepIfEE'
p14
I26
sS'_Z36compute_hists_kernel_many_blocks_extILi1EEviN2cv3gpu7PtrStepIfEENS2_IhEEfPf'
p15
I32
sS'_Z33compute_gradients_8UC4_kernel_extILi256ELi1EEviiN2cv3gpu7PtrStepIhEEfNS2_IfEES3_'
p16
I31
s.